1		0000		        		ORG 0
2		0000		        		START:
3		0000		        		IN0:
4		0000		600000		JKB IN0
5		0003		408001		LDA 8001H
6		0006		08			MOV R0,A
7		0007		        		IN1:
8		0007		600007		JKB IN1
9		000A		408001		LDA 8001H
10		000D		09			MOV R1,A
11		000E		        		IN2:
12		000E		60000E		JKB IN2
13		0011		408001		LDA 8001H
14		0014		0A			MOV R2,A
15		0015		        		IN3:
16		0015		600015		JKB IN3
17		0018		408001		LDA 8001H
18		001B		0B			MOV R3,A
19		001C		        		PRINT:
20		001C		300A			MOV A,#0AH
21		001E		488002		STA 8002H
22		0021		        		LP1:
23		0021		680021		JPB LP1
24		0024		488002		STA 8002H
25		0027		        		LP2:
26		0027		680027		JPB LP2
27		002A		01			MOV A,R1
28		002B		488002		STA 8002H
29		002E		        		LP3:
30		002E		68002E		JPB LP3
31		0031		3010			MOV A,#10H
32		0033		20			ADD A,R0
33		0034		488002		STA 8002H
34		0037		        		LP4:
35		0037		680037		JPB LP4
36		003A		3009			MOV A,#9
37		003C		488002		STA 8002H
38		003F		        		LP11:
39		003F		68003F		JPB LP11
40		0042		300A			MOV A,#0AH
41		0044		488002		STA 8002H
42		0047		        		LP22:
43		0047		680047		JPB LP22
44		004A		03			MOV A,R3
45		004B		488002		STA 8002H
46		004E		        		LP33:
47		004E		68004E		JPB LP33
48		0051		3010			MOV A,#10H
49		0053		22			ADD A,R2
50		0054		488002		STA 8002H
51		0057		        		LP44:
52		0057		680057		JPB LP44
53		005A		3009			MOV A,#9H
54		005C		488002		STA 8002H
55		005F		        		LPP5:
56		005F		68005F		JPB LPP5
57		0062		300A			MOV A,#0AH
58		0064		488002		STA 8002H
59		0067		        		LPP6:
60		0067		680067		JPB LPP6
61		006A		        		M0:
62		006A		3C01			MOV R4,#1
63		006C		3D00			MOV R5,#0
64		006E		3E00			MOV R6,#0
65		0070		3F00			MOV R7,#0
66		0072		        		M1:
67		0072		03			MOV A,R3
68		0073		2C			SUB A,R4
69		0074		500081		JC M2
70		0077		0B			MOV R3,A
71		0078		05			MOV A,R5
72		0079		21			ADD A,R1
73		007A		0D			MOV R5,A
74		007B		06			MOV A,R6
75		007C		20			ADD  A,R0
76		007D		0E			MOV R6,A
77		007E		580072		JMP M1
78		0081		        		M2:
79		0081		02			MOV A,R2
80		0082		2C			SUB A,R4
81		0083		500090		JC D0
82		0086		0A			MOV  R2,A
83		0087		06			MOV A,R6
84		0088		21			ADD A,R1
85		0089		0E			MOV R6,A
86		008A		07			MOV A,R7
87		008B		20			ADD A,R0
88		008C		0F			MOV R7,A
89		008D		580081		JMP M2
90		0090		        		D0:
91		0090		3000			MOV A,#0
92		0092		08			MOV R0,A
93		0093		300A			MOV A,#10
94		0095		09			MOV R1,A
95		0096		        		D1:
96		0096		05			MOV A,R5
97		0097		29			SUB A,R1
98		0098		5000A2		JC D2
99		009B		0D			MOV R5,A
100		009C		06			MOV A,R6
101		009D		24			ADD  A,R4
102		009E		0E			MOV R6,A
103		009F		580096		JMP D1
104		00A2		        		D2:
105		00A2		06			MOV A,R6
106		00A3		29			SUB A,R1
107		00A4		5000AE		JC D3
108		00A7		0E			MOV R6,A
109		00A8		07			MOV A,R7
110		00A9		24			ADD A,R4
111		00AA		0F			MOV R7,A
112		00AB		5800A2		JMP D2
113		00AE		        		D3:
114		00AE		07			MOV A,R7
115		00AF		29			SUB A,R1
116		00B0		5000BA		JC P0
117		00B3		0F			MOV R7,A
118		00B4		00			MOV A,R0
119		00B5		24			ADD A,R4
120		00B6		08			MOV R0,A
121		00B7		5800AE		JMP D3
122		00BA		        		P0:
123		00BA		00			MOV A,R0
124		00BB		2C			SUB A,R4
125		00BC		5000E0		JC P1
126		00BF		05			MOV A,R5
127		00C0		488002		STA 8002H
128		00C3		        		P01:
129		00C3		6800C3		JPB P01
130		00C6		06			MOV A,R6
131		00C7		488002		STA 8002H
132		00CA		        		P02:
133		00CA		6800CA		JPB P02
134		00CD		07			MOV  A,R7
135		00CE		488002		STA 8002H
136		00D1		        		P03:
137		00D1		6800D1		JPB P03
138		00D4		3010			MOV A,#10H
139		00D6		20			ADD A,R0
140		00D7		488002		STA 8002H
141		00DA		        		P04:
142		00DA		6800DA		JPB P04
143		00DD		580000		JMP START
144		00E0		        		P1:
145		00E0		07			MOV A,R7
146		00E1		2C			SUB A,R4
147		00E2		5000FF		JC P2
148		00E5		05			MOV A,R5
149		00E6		488002		STA  8002H
150		00E9		        		P11:
151		00E9		6800E9		JPB P11
152		00EC		06			MOV A,R6
153		00ED		488002		STA 8002H
154		00F0		        		P12:
155		00F0		6800F0		JPB P12
156		00F3		3010			MOV  A,#10H
157		00F5		27			ADD A,R7
158		00F6		488002		STA 8002H
159		00F9		        		P13:
160		00F9		6800F9		JPB P13
161		00FC		580000		JMP START
162		00FF		        		P2:
163		00FF		06			MOV A,R6
164		0100		2C			SUB A,R4
165		0101		500117		JC P3
166		0104		05			MOV A,R5
167		0105		488002		STA 8002H
168		0108		        		P21:
169		0108		680108		JPB  P21
170		010B		3010			MOV A,#10H
171		010D		26			ADD A,R6
172		010E		488002		STA 8002H
173		0111		        		P22:
174		0111		680111		JPB P22
175		0114		580000		JMP START
176		0117		        		P3:
177		0117		3010			MOV A,#10H
178		0119		25			ADD A,R5
179		011A		488002		STA 8002H
180		011D		        		P31:
181		011D		68011D		JPB P31
182		0120		580000		JMP  START
